target datalayout = "e-m:e-p270:32:32-p271:32:32-p272:64:64-i64:64-i128:128-f80:128-n8:16:32:64-S128"
target triple = "x86_64-pc-linux-gnu"

%struct._zend_refcounted_h = type { i32, %union.anon }
%union.anon = type { i32 }
%struct._zend_string = type { %struct._zend_refcounted_h, i64, i64, [1 x i8] }

@.str.7 = private unnamed_addr constant [3 x i8] c"rb\00", align 1
@.str.14 = private unnamed_addr constant [37 x i8] c"unable to open phar for reading \22%s\22\00", align 1
@.str.17 = private unnamed_addr constant [50 x i8] c"cannot initialize a phar outside of PHP execution\00", align 1
@.str.18 = private unnamed_addr constant [25 x i8] c"__COMPILER_HALT_OFFSET__\00", align 1
@.str.19 = private unnamed_addr constant [46 x i8] c"__HALT_COMPILER(); must be declared in a phar\00", align 1

; Function Attrs: nounwind uwtable
define hidden i32 @phar_open_executed_filename(ptr noundef %0, i64 noundef %1, ptr noundef %2) #0 {
  %4 = alloca ptr, align 8
  %5 = alloca ptr, align 8
  %6 = alloca i32, align 4
  %7 = alloca i32, align 4
  %8 = alloca ptr, align 8
  %9 = alloca i8, align 1
  %10 = alloca ptr, align 8
  %11 = alloca i8, align 1
  %12 = alloca i32, align 4
  %13 = alloca ptr, align 8
  %14 = alloca i64, align 8
  %15 = alloca ptr, align 8
  %16 = alloca ptr, align 8
  %17 = alloca ptr, align 8
  %18 = alloca ptr, align 8
  %19 = alloca i32, align 4
  store ptr %0, ptr %13, align 8
  store i64 %1, ptr %14, align 8
  store ptr %2, ptr %15, align 8
  %20 = load ptr, ptr %15, align 8
  %21 = icmp ne ptr %20, null
  br i1 %21, label %22, label %24

22:                                               ; preds = %3
  %23 = load ptr, ptr %15, align 8
  store ptr null, ptr %23, align 8
  br label %24

24:                                               ; preds = %22, %3
  %25 = call ptr @zend_get_executed_filename_ex()
  store ptr %25, ptr %16, align 8
  %26 = load ptr, ptr %16, align 8
  %27 = icmp ne ptr %26, null
  br i1 %27, label %35, label %28

28:                                               ; preds = %24
  %29 = load ptr, ptr %15, align 8
  %30 = icmp ne ptr %29, null
  br i1 %30, label %31, label %34

31:                                               ; preds = %28
  %32 = load ptr, ptr %15, align 8
  %33 = call i64 (ptr, i64, ptr, ...) @zend_spprintf(ptr noundef %32, i64 noundef 0, ptr noundef @.str.17)
  br label %34

34:                                               ; preds = %31, %28
  store i32 -1, ptr %12, align 4
  br label %161

35:                                               ; preds = %24
  %36 = load ptr, ptr %16, align 8
  %37 = getelementptr inbounds %struct._zend_string, ptr %36, i32 0, i32 3
  %38 = getelementptr inbounds [1 x i8], ptr %37, i64 0, i64 0
  %39 = load ptr, ptr %16, align 8
  %40 = getelementptr inbounds %struct._zend_string, ptr %39, i32 0, i32 2
  %41 = load i64, ptr %40, align 8
  %42 = load ptr, ptr %13, align 8
  %43 = load i64, ptr %14, align 8
  %44 = call i32 @phar_open_parsed_phar(ptr noundef %38, i64 noundef %41, ptr noundef %42, i64 noundef %43, i1 noundef zeroext false, i32 noundef 8, ptr noundef null, ptr noundef null)
  %45 = icmp eq i32 %44, 0
  br i1 %45, label %46, label %47

46:                                               ; preds = %35
  store i32 0, ptr %12, align 4
  br label %161

47:                                               ; preds = %35
  %48 = call ptr @zend_get_constant_str(ptr noundef @.str.18, i64 noundef 24)
  %49 = icmp eq ptr null, %48
  br i1 %49, label %50, label %57

50:                                               ; preds = %47
  %51 = load ptr, ptr %15, align 8
  %52 = icmp ne ptr %51, null
  br i1 %52, label %53, label %56

53:                                               ; preds = %50
  %54 = load ptr, ptr %15, align 8
  %55 = call i64 (ptr, i64, ptr, ...) @zend_spprintf(ptr noundef %54, i64 noundef 0, ptr noundef @.str.19)
  br label %56

56:                                               ; preds = %53, %50
  store i32 -1, ptr %12, align 4
  br label %161

57:                                               ; preds = %47
  %58 = load ptr, ptr %16, align 8
  %59 = getelementptr inbounds %struct._zend_string, ptr %58, i32 0, i32 3
  %60 = getelementptr inbounds [1 x i8], ptr %59, i64 0, i64 0
  %61 = call i32 @php_check_open_basedir(ptr noundef %60)
  %62 = icmp ne i32 %61, 0
  br i1 %62, label %63, label %64

63:                                               ; preds = %57
  store i32 -1, ptr %12, align 4
  br label %161

64:                                               ; preds = %57
  store ptr null, ptr %17, align 8
  %65 = load ptr, ptr %16, align 8
  %66 = getelementptr inbounds %struct._zend_string, ptr %65, i32 0, i32 3
  %67 = getelementptr inbounds [1 x i8], ptr %66, i64 0, i64 0
  %68 = call ptr @_php_stream_open_wrapper_ex(ptr noundef %67, ptr noundef @.str.7, i32 noundef 26, ptr noundef %17, ptr noundef null)
  store ptr %68, ptr %18, align 8
  %69 = load ptr, ptr %18, align 8
  %70 = icmp ne ptr %69, null
  br i1 %70, label %112, label %71

71:                                               ; preds = %64
  %72 = load ptr, ptr %15, align 8
  %73 = icmp ne ptr %72, null
  br i1 %73, label %74, label %80

74:                                               ; preds = %71
  %75 = load ptr, ptr %15, align 8
  %76 = load ptr, ptr %16, align 8
  %77 = getelementptr inbounds %struct._zend_string, ptr %76, i32 0, i32 3
  %78 = getelementptr inbounds [1 x i8], ptr %77, i64 0, i64 0
  %79 = call i64 (ptr, i64, ptr, ...) @zend_spprintf(ptr noundef %75, i64 noundef 0, ptr noundef @.str.14, ptr noundef %78)
  br label %80

80:                                               ; preds = %74, %71
  %81 = load ptr, ptr %17, align 8
  %82 = icmp ne ptr %81, null
  br i1 %82, label %83, label %111

83:                                               ; preds = %80
  %84 = load ptr, ptr %17, align 8
  store ptr %84, ptr %8, align 8
  store i8 0, ptr %9, align 1
  %85 = load ptr, ptr %8, align 8
  %86 = getelementptr inbounds %struct._zend_refcounted_h, ptr %85, i32 0, i32 1
  %87 = load i32, ptr %86, align 4
  store i32 %87, ptr %7, align 4
  %88 = load i32, ptr %7, align 4
  %89 = and i32 %88, 1008
  %90 = and i32 %89, 64
  %91 = icmp ne i32 %90, 0
  br i1 %91, label %110, label %92

92:                                               ; preds = %83
  %93 = load ptr, ptr %8, align 8
  store ptr %93, ptr %5, align 8
  %94 = load ptr, ptr %5, align 8
  %95 = load i32, ptr %94, align 4
  %96 = icmp ugt i32 %95, 0
  call void @llvm.assume(i1 %96)
  %97 = load ptr, ptr %5, align 8
  %98 = load i32, ptr %97, align 4
  %99 = add i32 %98, -1
  store i32 %99, ptr %97, align 4
  %100 = icmp eq i32 %99, 0
  br i1 %100, label %101, label %109

101:                                              ; preds = %92
  %102 = load i8, ptr %9, align 1
  %103 = trunc i8 %102 to i1
  br i1 %103, label %104, label %106

104:                                              ; preds = %101
  %105 = load ptr, ptr %8, align 8
  call void @free(ptr noundef %105) #13
  br label %108

106:                                              ; preds = %101
  %107 = load ptr, ptr %8, align 8
  call void @_efree(ptr noundef %107) #13
  br label %108

108:                                              ; preds = %106, %104
  br label %109

109:                                              ; preds = %108, %92
  br label %110

110:                                              ; preds = %109, %83
  br label %111

111:                                              ; preds = %110, %80
  store i32 -1, ptr %12, align 4
  br label %161

112:                                              ; preds = %64
  %113 = load ptr, ptr %17, align 8
  %114 = icmp ne ptr %113, null
  br i1 %114, label %115, label %117

115:                                              ; preds = %112
  %116 = load ptr, ptr %17, align 8
  store ptr %116, ptr %16, align 8
  br label %117

117:                                              ; preds = %115, %112
  %118 = load ptr, ptr %18, align 8
  %119 = load ptr, ptr %16, align 8
  %120 = getelementptr inbounds %struct._zend_string, ptr %119, i32 0, i32 3
  %121 = getelementptr inbounds [1 x i8], ptr %120, i64 0, i64 0
  %122 = load ptr, ptr %16, align 8
  %123 = getelementptr inbounds %struct._zend_string, ptr %122, i32 0, i32 2
  %124 = load i64, ptr %123, align 8
  %125 = load ptr, ptr %13, align 8
  %126 = load i64, ptr %14, align 8
  %127 = load ptr, ptr %15, align 8
  %128 = call i32 @phar_open_from_fp(ptr noundef %118, ptr noundef %121, i64 noundef %124, ptr noundef %125, i64 noundef %126, i32 noundef 8, ptr noundef null, i32 noundef 0, ptr noundef %127)
  store i32 %128, ptr %19, align 4
  %129 = load ptr, ptr %17, align 8
  %130 = icmp ne ptr %129, null
  br i1 %130, label %131, label %159

131:                                              ; preds = %117
  %132 = load ptr, ptr %17, align 8
  store ptr %132, ptr %10, align 8
  store i8 0, ptr %11, align 1
  %133 = load ptr, ptr %10, align 8
  %134 = getelementptr inbounds %struct._zend_refcounted_h, ptr %133, i32 0, i32 1
  %135 = load i32, ptr %134, align 4
  store i32 %135, ptr %6, align 4
  %136 = load i32, ptr %6, align 4
  %137 = and i32 %136, 1008
  %138 = and i32 %137, 64
  %139 = icmp ne i32 %138, 0
  br i1 %139, label %158, label %140

140:                                              ; preds = %131
  %141 = load ptr, ptr %10, align 8
  store ptr %141, ptr %4, align 8
  %142 = load ptr, ptr %4, align 8
  %143 = load i32, ptr %142, align 4
  %144 = icmp ugt i32 %143, 0
  call void @llvm.assume(i1 %144)
  %145 = load ptr, ptr %4, align 8
  %146 = load i32, ptr %145, align 4
  %147 = add i32 %146, -1
  store i32 %147, ptr %145, align 4
  %148 = icmp eq i32 %147, 0
  br i1 %148, label %149, label %157

149:                                              ; preds = %140
  %150 = load i8, ptr %11, align 1
  %151 = trunc i8 %150 to i1
  br i1 %151, label %152, label %154

152:                                              ; preds = %149
  %153 = load ptr, ptr %10, align 8
  call void @free(ptr noundef %153) #13
  br label %156

154:                                              ; preds = %149
  %155 = load ptr, ptr %10, align 8
  call void @_efree(ptr noundef %155) #13
  br label %156

156:                                              ; preds = %154, %152
  br label %157

157:                                              ; preds = %156, %140
  br label %158

158:                                              ; preds = %157, %131
  br label %159

159:                                              ; preds = %158, %117
  %160 = load i32, ptr %19, align 4
  store i32 %160, ptr %12, align 4
  br label %161

161:                                              ; preds = %159, %111, %63, %56, %46, %34
  %162 = load i32, ptr %12, align 4
  ret i32 %162
}