; Function Attrs: nounwind uwtable
define hidden i32 @phar_open_executed_filename(ptr noundef %0, i64 noundef %1, ptr noundef %2) local_unnamed_addr #0 {
  %4 = alloca ptr, align 8
  %.not = icmp eq ptr %2, null
  br i1 %.not, label %5, label %.thread

5:                                                ; preds = %3
  %6 = tail call ptr @zend_get_executed_filename_ex() #23
  %.not47 = icmp eq ptr %6, null
  br i1 %.not47, label %59, label %10

.thread:                                          ; preds = %3
  store ptr null, ptr %2, align 8
  %7 = tail call ptr @zend_get_executed_filename_ex() #23
  %.not4755 = icmp eq ptr %7, null
  br i1 %.not4755, label %8, label %10

8:                                                ; preds = %.thread
  %9 = tail call i64 (ptr, i64, ptr, ...) @zend_spprintf(ptr noundef nonnull %2, i64 noundef 0, ptr noundef nonnull @.str.17) #23
  br label %59

10:                                               ; preds = %.thread, %5
  %11 = phi ptr [ %7, %.thread ], [ %6, %5 ]
  %12 = getelementptr inbounds i8, ptr %11, i64 24
  %13 = getelementptr inbounds i8, ptr %11, i64 16
  %14 = load i64, ptr %13, align 8
  %15 = tail call i32 @phar_open_parsed_phar(ptr noundef nonnull %12, i64 noundef %14, ptr noundef %0, i64 noundef %1, i1 noundef zeroext false, i32 noundef 8, ptr noundef null, ptr noundef null), !range !5
  %16 = icmp eq i32 %15, 0
  br i1 %16, label %59, label %17

17:                                               ; preds = %10
  %18 = tail call ptr @zend_get_constant_str(ptr noundef nonnull @.str.18, i64 noundef 24) #23
  %19 = icmp eq ptr %18, null
  br i1 %19, label %20, label %23

20:                                               ; preds = %17
  br i1 %.not, label %59, label %21

21:                                               ; preds = %20
  %22 = tail call i64 (ptr, i64, ptr, ...) @zend_spprintf(ptr noundef nonnull %2, i64 noundef 0, ptr noundef nonnull @.str.19) #23
  br label %59

23:                                               ; preds = %17
  %24 = tail call i32 @php_check_open_basedir(ptr noundef nonnull %12) #23
  %.not48 = icmp eq i32 %24, 0
  br i1 %.not48, label %25, label %59

25:                                               ; preds = %23
  store ptr null, ptr %4, align 8
  %26 = call ptr @_php_stream_open_wrapper_ex(ptr noundef nonnull %12, ptr noundef nonnull @.str.7, i32 noundef 26, ptr noundef nonnull %4, ptr noundef null) #23
  %.not49 = icmp eq ptr %26, null
  br i1 %.not49, label %27, label %42

27:                                               ; preds = %25
  br i1 %.not, label %30, label %28

28:                                               ; preds = %27
  %29 = call i64 (ptr, i64, ptr, ...) @zend_spprintf(ptr noundef nonnull %2, i64 noundef 0, ptr noundef nonnull @.str.14, ptr noundef nonnull %12) #23
  br label %30

30:                                               ; preds = %28, %27
  %31 = load ptr, ptr %4, align 8
  %.not50 = icmp eq ptr %31, null
  br i1 %.not50, label %59, label %32

32:                                               ; preds = %30
  %33 = getelementptr inbounds i8, ptr %31, i64 4
  %34 = load i32, ptr %33, align 4
  %35 = and i32 %34, 64
  %.not51 = icmp eq i32 %35, 0
  br i1 %.not51, label %36, label %59

36:                                               ; preds = %32
  %37 = load i32, ptr %31, align 4
  %38 = icmp ne i32 %37, 0
  call void @llvm.assume(i1 %38)
  %39 = add i32 %37, -1
  store i32 %39, ptr %31, align 4
  %40 = icmp eq i32 %39, 0
  br i1 %40, label %41, label %59

41:                                               ; preds = %36
  call void @_efree(ptr noundef nonnull %31) #23
  br label %59

42:                                               ; preds = %25
  %43 = load ptr, ptr %4, align 8
  %.not52 = icmp eq ptr %43, null
  %spec.select = select i1 %.not52, ptr %11, ptr %43
  %44 = getelementptr inbounds i8, ptr %spec.select, i64 24
  %45 = getelementptr inbounds i8, ptr %spec.select, i64 16
  %46 = load i64, ptr %45, align 8
  %47 = call fastcc i32 @phar_open_from_fp(ptr noundef nonnull %26, ptr noundef nonnull %44, i64 noundef %46, ptr noundef %0, i64 noundef %1, ptr noundef null, i32 noundef 0, ptr noundef %2)
  %48 = load ptr, ptr %4, align 8
  %.not53 = icmp eq ptr %48, null
  br i1 %.not53, label %59, label %49

49:                                               ; preds = %42
  %50 = getelementptr inbounds i8, ptr %48, i64 4
  %51 = load i32, ptr %50, align 4
  %52 = and i32 %51, 64
  %.not54 = icmp eq i32 %52, 0
  br i1 %.not54, label %53, label %59

53:                                               ; preds = %49
  %54 = load i32, ptr %48, align 4
  %55 = icmp ne i32 %54, 0
  call void @llvm.assume(i1 %55)
  %56 = add i32 %54, -1
  store i32 %56, ptr %48, align 4
  %57 = icmp eq i32 %56, 0
  br i1 %57, label %58, label %59

58:                                               ; preds = %53
  call void @_efree(ptr noundef nonnull %48) #23
  br label %59

59:                                               ; preds = %5, %42, %53, %58, %49, %30, %36, %41, %32, %23, %20, %21, %10, %8
  %.0 = phi i32 [ -1, %8 ], [ 0, %10 ], [ -1, %21 ], [ -1, %20 ], [ -1, %23 ], [ -1, %32 ], [ -1, %41 ], [ -1, %36 ], [ -1, %30 ], [ %47, %49 ], [ %47, %58 ], [ %47, %53 ], [ %47, %42 ], [ -1, %5 ]
  ret i32 %.0
}